target datalayout = "e-m:e-p270:32:32-p271:32:32-p272:64:64-i64:64-i128:128-f80:128-n8:16:32:64-S128"
target triple = "x86_64-pc-linux-gnu"

%"class.std::vector" = type { %"struct.std::_Vector_base" }
%"struct.std::_Vector_base" = type { %"struct.std::_Vector_base<int, std::allocator<int>>::_Vector_impl" }
%"struct.std::_Vector_base<int, std::allocator<int>>::_Vector_impl" = type { %"struct.std::_Vector_base<int, std::allocator<int>>::_Vector_impl_data" }
%"struct.std::_Vector_base<int, std::allocator<int>>::_Vector_impl_data" = type { ptr, ptr, ptr }
%"struct.Yosys::RTLIL::IdString" = type { i32 }
%"struct.Yosys::DriveChunkMultiple" = type { %"class.Yosys::hashlib::pool.6", i32, [4 x i8] }
%"class.Yosys::hashlib::pool.6" = type <{ %"class.std::vector", %"class.std::vector.7", [8 x i8] }>
%"class.std::vector.7" = type { %"struct.std::_Vector_base.8" }
%"struct.std::_Vector_base.8" = type { %"struct.std::_Vector_base<Yosys::hashlib::pool<Yosys::DriveChunk>::entry_t, std::allocator<Yosys::hashlib::pool<Yosys::DriveChunk>::entry_t>>::_Vector_impl" }
%"struct.std::_Vector_base<Yosys::hashlib::pool<Yosys::DriveChunk>::entry_t, std::allocator<Yosys::hashlib::pool<Yosys::DriveChunk>::entry_t>>::_Vector_impl" = type { %"struct.std::_Vector_base<Yosys::hashlib::pool<Yosys::DriveChunk>::entry_t, std::allocator<Yosys::hashlib::pool<Yosys::DriveChunk>::entry_t>>::_Vector_impl_data" }
%"struct.std::_Vector_base<Yosys::hashlib::pool<Yosys::DriveChunk>::entry_t, std::allocator<Yosys::hashlib::pool<Yosys::DriveChunk>::entry_t>>::_Vector_impl_data" = type { ptr, ptr, ptr }
%"struct.Yosys::DriveChunk" = type { i8, %union.anon.13 }
%union.anon.13 = type { %"struct.Yosys::RTLIL::Const", [24 x i8] }
%"struct.Yosys::RTLIL::Const" = type { i16, i8, %union.anon.14 }
%union.anon.14 = type { %"class.std::__cxx11::basic_string" }
%"class.std::__cxx11::basic_string" = type { %"struct.std::__cxx11::basic_string<char>::_Alloc_hider", i64, %union.anon.23 }
%"struct.std::__cxx11::basic_string<char>::_Alloc_hider" = type { ptr }
%union.anon.23 = type { i64, [8 x i8] }
%"struct.Yosys::DriveChunkWire" = type { ptr, i32, i32 }
%"struct.Yosys::DriveChunkPort" = type <{ ptr, %"struct.Yosys::RTLIL::IdString", i32, i32, [4 x i8] }>
%"struct.Yosys::DriveChunkMarker" = type { i32, i32, i32 }
%"struct.Yosys::DriveSpec" = type <{ i32, [4 x i8], %"class.std::vector.25", %"class.std::vector.30", i32, [4 x i8] }>
%"class.std::vector.25" = type { %"struct.std::_Vector_base.26" }
%"struct.std::_Vector_base.26" = type { %"struct.std::_Vector_base<Yosys::DriveChunk, std::allocator<Yosys::DriveChunk>>::_Vector_impl" }
%"struct.std::_Vector_base<Yosys::DriveChunk, std::allocator<Yosys::DriveChunk>>::_Vector_impl" = type { %"struct.std::_Vector_base<Yosys::DriveChunk, std::allocator<Yosys::DriveChunk>>::_Vector_impl_data" }
%"struct.std::_Vector_base<Yosys::DriveChunk, std::allocator<Yosys::DriveChunk>>::_Vector_impl_data" = type { ptr, ptr, ptr }
%"class.std::vector.30" = type { %"struct.std::_Vector_base.31" }
%"struct.std::_Vector_base.31" = type { %"struct.std::_Vector_base<Yosys::DriveBit, std::allocator<Yosys::DriveBit>>::_Vector_impl" }
%"struct.std::_Vector_base<Yosys::DriveBit, std::allocator<Yosys::DriveBit>>::_Vector_impl" = type { %"struct.std::_Vector_base<Yosys::DriveBit, std::allocator<Yosys::DriveBit>>::_Vector_impl_data" }
%"struct.std::_Vector_base<Yosys::DriveBit, std::allocator<Yosys::DriveBit>>::_Vector_impl_data" = type { ptr, ptr, ptr }
%"class.__gnu_cxx::__normal_iterator.36" = type { ptr }

@.str = private unnamed_addr constant [17 x i8] c"Abort in %s:%d.\0A\00", align 1
@.str.20 = private unnamed_addr constant [23 x i8] c"./kernel/drivertools.h\00", align 1

; Function Attrs: mustprogress nounwind uwtable
define linkonce_odr noundef i32 @_ZNK5Yosys18DriveChunkMultiple4sizeEv(ptr noundef nonnull align 8 dereferenceable(60) %0) #7 comdat align 2 {
  %2 = alloca ptr, align 8
  store ptr %0, ptr %2, align 8, !tbaa !35
  %3 = load ptr, ptr %2, align 8
  %4 = getelementptr inbounds nuw %"struct.Yosys::DriveChunkMultiple", ptr %3, i32 0, i32 1
  %5 = load i32, ptr %4, align 8, !tbaa !94
  ret i32 %5
}

; Function Attrs: mustprogress nounwind uwtable
define linkonce_odr noundef i32 @_ZNK5Yosys16DriveChunkMarker4sizeEv(ptr noundef nonnull align 4 dereferenceable(12) %0) #7 comdat align 2 {
  %2 = alloca ptr, align 8
  store ptr %0, ptr %2, align 8, !tbaa !71
  %3 = load ptr, ptr %2, align 8
  %4 = getelementptr inbounds nuw %"struct.Yosys::DriveChunkMarker", ptr %3, i32 0, i32 2
  %5 = load i32, ptr %4, align 4, !tbaa !81
  ret i32 %5
}

; Function Attrs: mustprogress nounwind uwtable
define linkonce_odr noundef i32 @_ZNK5Yosys14DriveChunkPort4sizeEv(ptr noundef nonnull align 8 dereferenceable(20) %0) #7 comdat align 2 {
  %2 = alloca ptr, align 8
  store ptr %0, ptr %2, align 8, !tbaa !55
  %3 = load ptr, ptr %2, align 8
  %4 = getelementptr inbounds nuw %"struct.Yosys::DriveChunkPort", ptr %3, i32 0, i32 3
  %5 = load i32, ptr %4, align 8, !tbaa !67
  ret i32 %5
}

; Function Attrs: mustprogress nounwind uwtable
define linkonce_odr noundef i32 @_ZNK5Yosys14DriveChunkWire4sizeEv(ptr noundef nonnull align 8 dereferenceable(16) %0) #7 comdat align 2 {
  %2 = alloca ptr, align 8
  store ptr %0, ptr %2, align 8, !tbaa !49
  %3 = load ptr, ptr %2, align 8
  %4 = getelementptr inbounds nuw %"struct.Yosys::DriveChunkWire", ptr %3, i32 0, i32 2
  %5 = load i32, ptr %4, align 4, !tbaa !54
  ret i32 %5
}

; Function Attrs: mustprogress nounwind uwtable
define linkonce_odr noundef nonnull align 8 dereferenceable(8) ptr @_ZNK9__gnu_cxx17__normal_iteratorIPN5Yosys10DriveChunkESt6vectorIS2_SaIS2_EEE4baseEv(ptr noundef nonnull align 8 dereferenceable(8) %0) #7 comdat align 2 {
  %2 = alloca ptr, align 8
  store ptr %0, ptr %2, align 8, !tbaa !159
  %3 = load ptr, ptr %2, align 8
  %4 = getelementptr inbounds nuw %"class.__gnu_cxx::__normal_iterator.36", ptr %3, i32 0, i32 0
  ret ptr %4
}

; Function Attrs: mustprogress nounwind uwtable
define linkonce_odr void @_ZN9__gnu_cxx17__normal_iteratorIPN5Yosys10DriveChunkESt6vectorIS2_SaIS2_EEEC2ERKS3_(ptr noundef nonnull align 8 dereferenceable(8) %0, ptr noundef nonnull align 8 dereferenceable(8) %1) unnamed_addr #7 comdat align 2 {
  %3 = alloca ptr, align 8
  %4 = alloca ptr, align 8
  store ptr %0, ptr %3, align 8, !tbaa !159
  store ptr %1, ptr %4, align 8, !tbaa !788
  %5 = load ptr, ptr %3, align 8
  %6 = getelementptr inbounds nuw %"class.__gnu_cxx::__normal_iterator.36", ptr %5, i32 0, i32 0
  %7 = load ptr, ptr %4, align 8, !tbaa !788
  %8 = load ptr, ptr %7, align 8, !tbaa !39
  store ptr %8, ptr %6, align 8, !tbaa !161
  ret void
}

; Function Attrs: mustprogress nounwind uwtable
define linkonce_odr noundef nonnull align 8 dereferenceable(8) ptr @_ZN9__gnu_cxx17__normal_iteratorIPN5Yosys10DriveChunkESt6vectorIS2_SaIS2_EEEppEv(ptr noundef nonnull align 8 dereferenceable(8) %0) #7 comdat align 2 {
  %2 = alloca ptr, align 8
  store ptr %0, ptr %2, align 8, !tbaa !159
  %3 = load ptr, ptr %2, align 8
  %4 = getelementptr inbounds nuw %"class.__gnu_cxx::__normal_iterator.36", ptr %3, i32 0, i32 0
  %5 = load ptr, ptr %4, align 8, !tbaa !161
  %6 = getelementptr inbounds nuw %"struct.Yosys::DriveChunk", ptr %5, i32 1
  store ptr %6, ptr %4, align 8, !tbaa !161
  ret ptr %3
}

; Function Attrs: mustprogress uwtable
define linkonce_odr noundef i32 @_ZNK5Yosys10DriveChunk4sizeEv(ptr noundef nonnull align 8 dereferenceable(72) %0) #4 comdat align 2 {
  %2 = alloca i32, align 4
  %3 = alloca ptr, align 8
  store ptr %0, ptr %3, align 8, !tbaa !39
  %4 = load ptr, ptr %3, align 8
  %5 = getelementptr inbounds nuw %"struct.Yosys::DriveChunk", ptr %4, i32 0, i32 0
  %6 = load i8, ptr %5, align 8, !tbaa !46
  switch i8 %6, label %25 [
    i8 0, label %7
    i8 1, label %10
    i8 2, label %13
    i8 3, label %16
    i8 5, label %19
    i8 4, label %22
  ]

7:                                                ; preds = %1
  %8 = getelementptr inbounds nuw %"struct.Yosys::DriveChunk", ptr %4, i32 0, i32 1
  %9 = load i32, ptr %8, align 8, !tbaa !19
  store i32 %9, ptr %2, align 4
  br label %26

10:                                               ; preds = %1
  %11 = getelementptr inbounds nuw %"struct.Yosys::DriveChunk", ptr %4, i32 0, i32 1
  %12 = call noundef i32 @_ZNK5Yosys5RTLIL5Const4sizeEv(ptr noundef nonnull align 8 dereferenceable(40) %11)
  store i32 %12, ptr %2, align 4
  br label %26

13:                                               ; preds = %1
  %14 = getelementptr inbounds nuw %"struct.Yosys::DriveChunk", ptr %4, i32 0, i32 1
  %15 = call noundef i32 @_ZNK5Yosys14DriveChunkWire4sizeEv(ptr noundef nonnull align 8 dereferenceable(16) %14)
  store i32 %15, ptr %2, align 4
  br label %26

16:                                               ; preds = %1
  %17 = getelementptr inbounds nuw %"struct.Yosys::DriveChunk", ptr %4, i32 0, i32 1
  %18 = call noundef i32 @_ZNK5Yosys14DriveChunkPort4sizeEv(ptr noundef nonnull align 8 dereferenceable(20) %17)
  store i32 %18, ptr %2, align 4
  br label %26

19:                                               ; preds = %1
  %20 = getelementptr inbounds nuw %"struct.Yosys::DriveChunk", ptr %4, i32 0, i32 1
  %21 = call noundef i32 @_ZNK5Yosys16DriveChunkMarker4sizeEv(ptr noundef nonnull align 4 dereferenceable(12) %20)
  store i32 %21, ptr %2, align 4
  br label %26

22:                                               ; preds = %1
  %23 = getelementptr inbounds nuw %"struct.Yosys::DriveChunk", ptr %4, i32 0, i32 1
  %24 = call noundef i32 @_ZNK5Yosys18DriveChunkMultiple4sizeEv(ptr noundef nonnull align 8 dereferenceable(60) %23)
  store i32 %24, ptr %2, align 4
  br label %26

25:                                               ; preds = %1
  call void (ptr, ...) @_ZN5Yosys9log_errorEPKcz(ptr noundef @.str, ptr noundef @.str.20, i32 noundef 956) #20
  unreachable

26:                                               ; preds = %22, %19, %16, %13, %10, %7
  %27 = load i32, ptr %2, align 4
  ret i32 %27
}

; Function Attrs: mustprogress nounwind uwtable
define linkonce_odr noundef nonnull align 8 dereferenceable(72) ptr @_ZNK9__gnu_cxx17__normal_iteratorIPN5Yosys10DriveChunkESt6vectorIS2_SaIS2_EEEdeEv(ptr noundef nonnull align 8 dereferenceable(8) %0) #7 comdat align 2 {
  %2 = alloca ptr, align 8
  store ptr %0, ptr %2, align 8, !tbaa !159
  %3 = load ptr, ptr %2, align 8
  %4 = getelementptr inbounds nuw %"class.__gnu_cxx::__normal_iterator.36", ptr %3, i32 0, i32 0
  %5 = load ptr, ptr %4, align 8, !tbaa !161
  ret ptr %5
}

; Function Attrs: inlinehint mustprogress nounwind uwtable
define linkonce_odr noundef zeroext i1 @_ZN9__gnu_cxxneIPN5Yosys10DriveChunkESt6vectorIS2_SaIS2_EEEEbRKNS_17__normal_iteratorIT_T0_EESC_(ptr noundef nonnull align 8 dereferenceable(8) %0, ptr noundef nonnull align 8 dereferenceable(8) %1) #5 comdat {
  %3 = alloca ptr, align 8
  %4 = alloca ptr, align 8
  store ptr %0, ptr %3, align 8, !tbaa !159
  store ptr %1, ptr %4, align 8, !tbaa !159
  %5 = load ptr, ptr %3, align 8, !tbaa !159
  %6 = call noundef nonnull align 8 dereferenceable(8) ptr @_ZNK9__gnu_cxx17__normal_iteratorIPN5Yosys10DriveChunkESt6vectorIS2_SaIS2_EEE4baseEv(ptr noundef nonnull align 8 dereferenceable(8) %5) #3
  %7 = load ptr, ptr %6, align 8, !tbaa !39
  %8 = load ptr, ptr %4, align 8, !tbaa !159
  %9 = call noundef nonnull align 8 dereferenceable(8) ptr @_ZNK9__gnu_cxx17__normal_iteratorIPN5Yosys10DriveChunkESt6vectorIS2_SaIS2_EEE4baseEv(ptr noundef nonnull align 8 dereferenceable(8) %8) #3
  %10 = load ptr, ptr %9, align 8, !tbaa !39
  %11 = icmp ne ptr %7, %10
  ret i1 %11
}

; Function Attrs: mustprogress nounwind uwtable
define linkonce_odr ptr @_ZNSt6vectorIN5Yosys10DriveChunkESaIS1_EE3endEv(ptr noundef nonnull align 8 dereferenceable(24) %0) #7 comdat align 2 {
  %2 = alloca %"class.__gnu_cxx::__normal_iterator.36", align 8
  %3 = alloca ptr, align 8
  store ptr %0, ptr %3, align 8, !tbaa !148
  %4 = load ptr, ptr %3, align 8
  %5 = getelementptr inbounds nuw %"struct.std::_Vector_base.26", ptr %4, i32 0, i32 0
  %6 = getelementptr inbounds nuw %"struct.std::_Vector_base<Yosys::DriveChunk, std::allocator<Yosys::DriveChunk>>::_Vector_impl_data", ptr %5, i32 0, i32 1
  call void @_ZN9__gnu_cxx17__normal_iteratorIPN5Yosys10DriveChunkESt6vectorIS2_SaIS2_EEEC2ERKS3_(ptr noundef nonnull align 8 dereferenceable(8) %2, ptr noundef nonnull align 8 dereferenceable(8) %6) #3
  %7 = getelementptr inbounds nuw %"class.__gnu_cxx::__normal_iterator.36", ptr %2, i32 0, i32 0
  %8 = load ptr, ptr %7, align 8
  ret ptr %8
}

; Function Attrs: mustprogress nounwind uwtable
define linkonce_odr ptr @_ZNSt6vectorIN5Yosys10DriveChunkESaIS1_EE5beginEv(ptr noundef nonnull align 8 dereferenceable(24) %0) #7 comdat align 2 {
  %2 = alloca %"class.__gnu_cxx::__normal_iterator.36", align 8
  %3 = alloca ptr, align 8
  store ptr %0, ptr %3, align 8, !tbaa !148
  %4 = load ptr, ptr %3, align 8
  %5 = getelementptr inbounds nuw %"struct.std::_Vector_base.26", ptr %4, i32 0, i32 0
  %6 = getelementptr inbounds nuw %"struct.std::_Vector_base<Yosys::DriveChunk, std::allocator<Yosys::DriveChunk>>::_Vector_impl_data", ptr %5, i32 0, i32 0
  call void @_ZN9__gnu_cxx17__normal_iteratorIPN5Yosys10DriveChunkESt6vectorIS2_SaIS2_EEEC2ERKS3_(ptr noundef nonnull align 8 dereferenceable(8) %2, ptr noundef nonnull align 8 dereferenceable(8) %6) #3
  %7 = getelementptr inbounds nuw %"class.__gnu_cxx::__normal_iterator.36", ptr %2, i32 0, i32 0
  %8 = load ptr, ptr %7, align 8
  ret ptr %8
}

; Function Attrs: mustprogress uwtable
define void @_ZN5Yosys9DriveSpec13compute_widthEv(ptr noundef nonnull align 8 dereferenceable(60) %0) #4 align 2 {
  %2 = alloca ptr, align 8
  %3 = alloca ptr, align 8
  %4 = alloca %"class.__gnu_cxx::__normal_iterator.36", align 8
  %5 = alloca %"class.__gnu_cxx::__normal_iterator.36", align 8
  %6 = alloca ptr, align 8
  store ptr %0, ptr %2, align 8, !tbaa !131
  %7 = load ptr, ptr %2, align 8
  %8 = getelementptr inbounds nuw %"struct.Yosys::DriveSpec", ptr %7, i32 0, i32 0
  store i32 0, ptr %8, align 8, !tbaa !143
  call void @llvm.lifetime.start.p0(i64 8, ptr %3) #3
  %9 = getelementptr inbounds nuw %"struct.Yosys::DriveSpec", ptr %7, i32 0, i32 2
  store ptr %9, ptr %3, align 8, !tbaa !148
  call void @llvm.lifetime.start.p0(i64 8, ptr %4) #3
  %10 = load ptr, ptr %3, align 8, !tbaa !148
  %11 = call ptr @_ZNSt6vectorIN5Yosys10DriveChunkESaIS1_EE5beginEv(ptr noundef nonnull align 8 dereferenceable(24) %10) #3
  %12 = getelementptr inbounds nuw %"class.__gnu_cxx::__normal_iterator.36", ptr %4, i32 0, i32 0
  store ptr %11, ptr %12, align 8
  call void @llvm.lifetime.start.p0(i64 8, ptr %5) #3
  %13 = load ptr, ptr %3, align 8, !tbaa !148
  %14 = call ptr @_ZNSt6vectorIN5Yosys10DriveChunkESaIS1_EE3endEv(ptr noundef nonnull align 8 dereferenceable(24) %13) #3
  %15 = getelementptr inbounds nuw %"class.__gnu_cxx::__normal_iterator.36", ptr %5, i32 0, i32 0
  store ptr %14, ptr %15, align 8
  br label %16

16:                                               ; preds = %26, %1
  %17 = call noundef zeroext i1 @_ZN9__gnu_cxxneIPN5Yosys10DriveChunkESt6vectorIS2_SaIS2_EEEEbRKNS_17__normal_iteratorIT_T0_EESC_(ptr noundef nonnull align 8 dereferenceable(8) %4, ptr noundef nonnull align 8 dereferenceable(8) %5) #3
  br i1 %17, label %19, label %18

18:                                               ; preds = %16
  call void @llvm.lifetime.end.p0(i64 8, ptr %5) #3
  call void @llvm.lifetime.end.p0(i64 8, ptr %4) #3
  call void @llvm.lifetime.end.p0(i64 8, ptr %3) #3
  br label %28

19:                                               ; preds = %16
  call void @llvm.lifetime.start.p0(i64 8, ptr %6) #3
  %20 = call noundef nonnull align 8 dereferenceable(72) ptr @_ZNK9__gnu_cxx17__normal_iteratorIPN5Yosys10DriveChunkESt6vectorIS2_SaIS2_EEEdeEv(ptr noundef nonnull align 8 dereferenceable(8) %4) #3
  store ptr %20, ptr %6, align 8, !tbaa !39
  %21 = load ptr, ptr %6, align 8, !tbaa !39
  %22 = call noundef i32 @_ZNK5Yosys10DriveChunk4sizeEv(ptr noundef nonnull align 8 dereferenceable(72) %21)
  %23 = getelementptr inbounds nuw %"struct.Yosys::DriveSpec", ptr %7, i32 0, i32 0
  %24 = load i32, ptr %23, align 8, !tbaa !143
  %25 = add nsw i32 %24, %22
  store i32 %25, ptr %23, align 8, !tbaa !143
  call void @llvm.lifetime.end.p0(i64 8, ptr %6) #3
  br label %26

26:                                               ; preds = %19
  %27 = call noundef nonnull align 8 dereferenceable(8) ptr @_ZN9__gnu_cxx17__normal_iteratorIPN5Yosys10DriveChunkESt6vectorIS2_SaIS2_EEEppEv(ptr noundef nonnull align 8 dereferenceable(8) %4) #3
  br label %16

28:                                               ; preds = %18
  ret void
}