; Function Attrs: mustprogress uwtable
define void @_ZN5Yosys9DriveSpec13compute_widthEv(ptr noundef nonnull align 8 captures(none) dereferenceable(60) initializes((0, 4)) %0) local_unnamed_addr #5 align 2 {
  store i32 0, ptr %0, align 8, !tbaa !139
  %2 = getelementptr inbounds nuw i8, ptr %0, i64 8
  %3 = load ptr, ptr %2, align 8, !tbaa !136
  %4 = getelementptr inbounds nuw i8, ptr %0, i64 16
  %5 = load ptr, ptr %4, align 8, !tbaa !136
  %.not7 = icmp eq ptr %3, %5
  br i1 %.not7, label %._crit_edge, label %.lr.ph

._crit_edge:                                      ; preds = %_ZNK5Yosys10DriveChunk4sizeEv.exit, %1
  ret void

.lr.ph:                                           ; preds = %1, %_ZNK5Yosys10DriveChunk4sizeEv.exit
  %6 = phi i32 [ %28, %_ZNK5Yosys10DriveChunk4sizeEv.exit ], [ 0, %1 ]
  %.sroa.04.08 = phi ptr [ %29, %_ZNK5Yosys10DriveChunk4sizeEv.exit ], [ %3, %1 ]
  %7 = load i8, ptr %.sroa.04.08, align 8, !tbaa !51
  switch i8 %7, label %26 [
    i8 0, label %8
    i8 1, label %11
    i8 2, label %14
    i8 3, label %17
    i8 5, label %20
    i8 4, label %23
  ]

8:                                                ; preds = %.lr.ph
  %9 = getelementptr inbounds nuw i8, ptr %.sroa.04.08, i64 8
  %10 = load i32, ptr %9, align 8, !tbaa !15
  br label %_ZNK5Yosys10DriveChunk4sizeEv.exit

11:                                               ; preds = %.lr.ph
  %12 = getelementptr inbounds nuw i8, ptr %.sroa.04.08, i64 8
  %13 = tail call noundef i32 @_ZNK5Yosys5RTLIL5Const4sizeEv(ptr noundef nonnull align 8 dereferenceable(40) %12)
  %.pre = load i32, ptr %0, align 8, !tbaa !139
  br label %_ZNK5Yosys10DriveChunk4sizeEv.exit

14:                                               ; preds = %.lr.ph
  %15 = getelementptr inbounds nuw i8, ptr %.sroa.04.08, i64 20
  %16 = load i32, ptr %15, align 4, !tbaa !77
  br label %_ZNK5Yosys10DriveChunk4sizeEv.exit

17:                                               ; preds = %.lr.ph
  %18 = getelementptr inbounds nuw i8, ptr %.sroa.04.08, i64 24
  %19 = load i32, ptr %18, align 8, !tbaa !78
  br label %_ZNK5Yosys10DriveChunk4sizeEv.exit

20:                                               ; preds = %.lr.ph
  %21 = getelementptr inbounds nuw i8, ptr %.sroa.04.08, i64 16
  %22 = load i32, ptr %21, align 4, !tbaa !82
  br label %_ZNK5Yosys10DriveChunk4sizeEv.exit

23:                                               ; preds = %.lr.ph
  %24 = getelementptr inbounds nuw i8, ptr %.sroa.04.08, i64 64
  %25 = load i32, ptr %24, align 8, !tbaa !88
  br label %_ZNK5Yosys10DriveChunk4sizeEv.exit

26:                                               ; preds = %.lr.ph
  tail call void (ptr, ...) @_ZN5Yosys9log_errorEPKcz(ptr noundef nonnull @.str, ptr noundef nonnull @.str.20, i32 noundef 956) #31
  unreachable

_ZNK5Yosys10DriveChunk4sizeEv.exit:               ; preds = %8, %11, %14, %17, %20, %23
  %27 = phi i32 [ %6, %23 ], [ %6, %20 ], [ %6, %17 ], [ %6, %14 ], [ %.pre, %11 ], [ %6, %8 ]
  %.0.i = phi i32 [ %25, %23 ], [ %22, %20 ], [ %19, %17 ], [ %16, %14 ], [ %13, %11 ], [ %10, %8 ]
  %28 = add nsw i32 %27, %.0.i
  store i32 %28, ptr %0, align 8, !tbaa !139
  %29 = getelementptr inbounds nuw i8, ptr %.sroa.04.08, i64 72
  %.not = icmp eq ptr %29, %5
  br i1 %.not, label %._crit_edge, label %.lr.ph
}